target datalayout = "e-m:e-p270:32:32-p271:32:32-p272:64:64-i64:64-i128:128-f80:128-n8:16:32:64-S128"
target triple = "x86_64-pc-linux-gnu"

%struct.FFOutputFormat = type { %struct.AVOutputFormat, i32, i32, ptr, ptr, ptr, ptr, ptr, ptr, ptr, ptr, ptr, ptr, ptr, ptr }
%struct.AVOutputFormat = type { ptr, ptr, ptr, ptr, i32, i32, i32, i32, ptr, ptr }
%struct.AVFormatContext = type { ptr, ptr, ptr, ptr, ptr, i32, i32, ptr, i32, ptr, i32, ptr, ptr, i64, i64, i64, i32, i32, i32, i64, i64, ptr, i32, i32, ptr, i32, i32, i32, i32, ptr, i64, i32, i32, %struct.AVIOInterruptCB, i32, i32, i32, i32, i64, i32, i32, i32, i32, i32, i32, i32, i32, i32, i32, i32, i32, i64, i32, i32, i32, i32, i32, ptr, ptr, ptr, ptr, i32, ptr, ptr, ptr, ptr, i32, ptr, ptr, i64, ptr, ptr, ptr, i64 }
%struct.AVIOInterruptCB = type { ptr, ptr }
%struct.AVStream = type { ptr, i32, i32, ptr, ptr, %struct.AVRational, i64, i64, i64, i32, i32, %struct.AVRational, ptr, %struct.AVRational, %struct.AVPacket, i32, %struct.AVRational, i32 }
%struct.AVPacket = type { ptr, i64, i64, ptr, i32, i32, i32, ptr, i32, i64, i64, ptr, ptr, %struct.AVRational }
%struct.AVRational = type { i32, i32 }
%struct.AVCodecParameters = type { i32, i32, i32, ptr, i32, ptr, i32, i32, i64, i32, i32, i32, i32, i32, i32, %struct.AVRational, %struct.AVRational, i32, i32, i32, i32, i32, i32, i32, %struct.AVChannelLayout, i32, i32, i32, i32, i32, i32 }
%struct.AVChannelLayout = type { i32, i32, %union.anon, ptr }
%union.anon = type { i64 }

@.str = private unnamed_addr constant [10 x i8] c"filmstrip\00", align 1
@.str.1 = private unnamed_addr constant [16 x i8] c"Adobe Filmstrip\00", align 1
@.str.2 = private unnamed_addr constant [4 x i8] c"flm\00", align 1
@ff_filmstrip_muxer = constant %struct.FFOutputFormat { %struct.AVOutputFormat { ptr @.str, ptr @.str.1, ptr null, ptr @.str.2, i32 0, i32 13, i32 0, i32 0, ptr null, ptr null }, i32 0, i32 12, ptr null, ptr @ff_raw_write_packet, ptr @write_trailer, ptr null, ptr null, ptr null, ptr null, ptr null, ptr null, ptr @init, ptr null, ptr null }, align 8
@.str.3 = private unnamed_addr constant [35 x i8] c"only AV_PIX_FMT_RGBA is supported\0A\00", align 1

declare i32 @ff_raw_write_packet(ptr noundef, ptr noundef) #0

; Function Attrs: nounwind uwtable
define internal i32 @write_trailer(ptr noundef %0) #1 {
  %2 = alloca ptr, align 8
  %3 = alloca ptr, align 8
  %4 = alloca ptr, align 8
  store ptr %0, ptr %2, align 8, !tbaa !4
  call void @llvm.lifetime.start.p0(i64 8, ptr %3) #4
  %5 = load ptr, ptr %2, align 8, !tbaa !4
  %6 = getelementptr inbounds nuw %struct.AVFormatContext, ptr %5, i32 0, i32 4
  %7 = load ptr, ptr %6, align 8, !tbaa !9
  store ptr %7, ptr %3, align 8, !tbaa !26
  call void @llvm.lifetime.start.p0(i64 8, ptr %4) #4
  %8 = load ptr, ptr %2, align 8, !tbaa !4
  %9 = getelementptr inbounds nuw %struct.AVFormatContext, ptr %8, i32 0, i32 7
  %10 = load ptr, ptr %9, align 8, !tbaa !27
  %11 = getelementptr inbounds ptr, ptr %10, i64 0
  %12 = load ptr, ptr %11, align 8, !tbaa !28
  store ptr %12, ptr %4, align 8, !tbaa !28
  %13 = load ptr, ptr %3, align 8, !tbaa !26
  call void @avio_wb32(ptr noundef %13, i32 noundef 1382116964)
  %14 = load ptr, ptr %3, align 8, !tbaa !26
  %15 = load ptr, ptr %4, align 8, !tbaa !28
  %16 = getelementptr inbounds nuw %struct.AVStream, ptr %15, i32 0, i32 8
  %17 = load i64, ptr %16, align 8, !tbaa !30
  %18 = trunc i64 %17 to i32
  call void @avio_wb32(ptr noundef %14, i32 noundef %18)
  %19 = load ptr, ptr %3, align 8, !tbaa !26
  call void @avio_wb16(ptr noundef %19, i32 noundef 0)
  %20 = load ptr, ptr %3, align 8, !tbaa !26
  call void @avio_wb16(ptr noundef %20, i32 noundef 0)
  %21 = load ptr, ptr %3, align 8, !tbaa !26
  %22 = load ptr, ptr %4, align 8, !tbaa !28
  %23 = getelementptr inbounds nuw %struct.AVStream, ptr %22, i32 0, i32 3
  %24 = load ptr, ptr %23, align 8, !tbaa !37
  %25 = getelementptr inbounds nuw %struct.AVCodecParameters, ptr %24, i32 0, i32 13
  %26 = load i32, ptr %25, align 8, !tbaa !38
  call void @avio_wb16(ptr noundef %21, i32 noundef %26)
  %27 = load ptr, ptr %3, align 8, !tbaa !26
  %28 = load ptr, ptr %4, align 8, !tbaa !28
  %29 = getelementptr inbounds nuw %struct.AVStream, ptr %28, i32 0, i32 3
  %30 = load ptr, ptr %29, align 8, !tbaa !37
  %31 = getelementptr inbounds nuw %struct.AVCodecParameters, ptr %30, i32 0, i32 14
  %32 = load i32, ptr %31, align 4, !tbaa !41
  call void @avio_wb16(ptr noundef %27, i32 noundef %32)
  %33 = load ptr, ptr %3, align 8, !tbaa !26
  call void @avio_wb16(ptr noundef %33, i32 noundef 0)
  %34 = load ptr, ptr %3, align 8, !tbaa !26
  %35 = load ptr, ptr %4, align 8, !tbaa !28
  %36 = getelementptr inbounds nuw %struct.AVStream, ptr %35, i32 0, i32 5
  %37 = getelementptr inbounds nuw %struct.AVRational, ptr %36, i32 0, i32 1
  %38 = load i32, ptr %37, align 4, !tbaa !42
  %39 = load ptr, ptr %4, align 8, !tbaa !28
  %40 = getelementptr inbounds nuw %struct.AVStream, ptr %39, i32 0, i32 5
  %41 = getelementptr inbounds nuw %struct.AVRational, ptr %40, i32 0, i32 0
  %42 = load i32, ptr %41, align 8, !tbaa !43
  %43 = sdiv i32 %38, %42
  call void @avio_wb16(ptr noundef %34, i32 noundef %43)
  %44 = load ptr, ptr %3, align 8, !tbaa !26
  call void @ffio_fill(ptr noundef %44, i32 noundef 0, i64 noundef 16)
  call void @llvm.lifetime.end.p0(i64 8, ptr %4) #4
  call void @llvm.lifetime.end.p0(i64 8, ptr %3) #4
  ret i32 0
}

; Function Attrs: cold nounwind optsize uwtable
define internal i32 @init(ptr noundef %0) #2 {
  %2 = alloca i32, align 4
  %3 = alloca ptr, align 8
  store ptr %0, ptr %3, align 8, !tbaa !4
  %4 = load ptr, ptr %3, align 8, !tbaa !4
  %5 = getelementptr inbounds nuw %struct.AVFormatContext, ptr %4, i32 0, i32 7
  %6 = load ptr, ptr %5, align 8, !tbaa !27
  %7 = getelementptr inbounds ptr, ptr %6, i64 0
  %8 = load ptr, ptr %7, align 8, !tbaa !28
  %9 = getelementptr inbounds nuw %struct.AVStream, ptr %8, i32 0, i32 3
  %10 = load ptr, ptr %9, align 8, !tbaa !37
  %11 = getelementptr inbounds nuw %struct.AVCodecParameters, ptr %10, i32 0, i32 7
  %12 = load i32, ptr %11, align 4, !tbaa !44
  %13 = icmp ne i32 %12, 26
  br i1 %13, label %14, label %16

14:                                               ; preds = %1
  %15 = load ptr, ptr %3, align 8, !tbaa !4
  call void (ptr, i32, ptr, ...) @av_log(ptr noundef %15, i32 noundef 16, ptr noundef @.str.3)
  store i32 -1094995529, ptr %2, align 4
  br label %17

16:                                               ; preds = %1
  store i32 0, ptr %2, align 4
  br label %17

17:                                               ; preds = %16, %14
  %18 = load i32, ptr %2, align 4
  ret i32 %18
}

; Function Attrs: nocallback nofree nosync nounwind willreturn memory(argmem: readwrite)
declare void @llvm.lifetime.start.p0(i64 immarg, ptr captures(none)) #3

declare void @avio_wb32(ptr noundef, i32 noundef) #0

declare void @avio_wb16(ptr noundef, i32 noundef) #0

declare void @ffio_fill(ptr noundef, i32 noundef, i64 noundef) #0

; Function Attrs: nocallback nofree nosync nounwind willreturn memory(argmem: readwrite)
declare void @llvm.lifetime.end.p0(i64 immarg, ptr captures(none)) #3

declare void @av_log(ptr noundef, i32 noundef, ptr noundef, ...) #0


!llvm.module.flags = !{!0, !1, !2, !3}

!0 = !{i32 1, !"wchar_size", i32 4}
!1 = !{i32 8, !"PIC Level", i32 2}
!2 = !{i32 7, !"uwtable", i32 2}
!3 = !{i32 1, !"override-stack-alignment", i32 16}
!4 = !{!5, !5, i64 0}
!5 = !{!"p1 _ZTS15AVFormatContext", !6, i64 0}
!6 = !{!"any pointer", !7, i64 0}
!7 = !{!"omnipotent char", !8, i64 0}
!8 = !{!"Simple C/C++ TBAA"}
!9 = !{!10, !14, i64 32}
!10 = !{!"AVFormatContext", !11, i64 0, !12, i64 8, !13, i64 16, !6, i64 24, !14, i64 32, !15, i64 40, !15, i64 44, !16, i64 48, !15, i64 56, !18, i64 64, !15, i64 72, !19, i64 80, !20, i64 88, !21, i64 96, !21, i64 104, !21, i64 112, !15, i64 120, !15, i64 124, !15, i64 128, !21, i64 136, !21, i64 144, !20, i64 152, !15, i64 160, !15, i64 164, !22, i64 168, !15, i64 176, !15, i64 180, !15, i64 184, !15, i64 188, !23, i64 192, !21, i64 200, !15, i64 208, !15, i64 212, !24, i64 216, !15, i64 232, !15, i64 236, !15, i64 240, !15, i64 244, !21, i64 248, !15, i64 256, !15, i64 260, !15, i64 264, !15, i64 268, !15, i64 272, !15, i64 276, !15, i64 280, !15, i64 284, !15, i64 288, !15, i64 292, !15, i64 296, !15, i64 300, !21, i64 304, !15, i64 312, !15, i64 316, !15, i64 320, !15, i64 324, !15, i64 328, !20, i64 336, !20, i64 344, !20, i64 352, !20, i64 360, !15, i64 368, !25, i64 376, !25, i64 384, !25, i64 392, !25, i64 400, !15, i64 408, !6, i64 416, !6, i64 424, !21, i64 432, !20, i64 440, !6, i64 448, !6, i64 456, !21, i64 464}
!11 = !{!"p1 _ZTS7AVClass", !6, i64 0}
!12 = !{!"p1 _ZTS13AVInputFormat", !6, i64 0}
!13 = !{!"p1 _ZTS14AVOutputFormat", !6, i64 0}
!14 = !{!"p1 _ZTS11AVIOContext", !6, i64 0}
!15 = !{!"int", !7, i64 0}
!16 = !{!"p2 _ZTS8AVStream", !17, i64 0}
!17 = !{!"any p2 pointer", !6, i64 0}
!18 = !{!"p2 _ZTS13AVStreamGroup", !17, i64 0}
!19 = !{!"p2 _ZTS9AVChapter", !17, i64 0}
!20 = !{!"p1 omnipotent char", !6, i64 0}
!21 = !{!"long", !7, i64 0}
!22 = !{!"p2 _ZTS9AVProgram", !17, i64 0}
!23 = !{!"p1 _ZTS12AVDictionary", !6, i64 0}
!24 = !{!"AVIOInterruptCB", !6, i64 0, !6, i64 8}
!25 = !{!"p1 _ZTS7AVCodec", !6, i64 0}
!26 = !{!14, !14, i64 0}
!27 = !{!10, !16, i64 48}
!28 = !{!29, !29, i64 0}
!29 = !{!"p1 _ZTS8AVStream", !6, i64 0}
!30 = !{!31, !21, i64 56}
!31 = !{!"AVStream", !11, i64 0, !15, i64 8, !15, i64 12, !32, i64 16, !6, i64 24, !33, i64 32, !21, i64 40, !21, i64 48, !21, i64 56, !15, i64 64, !15, i64 68, !33, i64 72, !23, i64 80, !33, i64 88, !34, i64 96, !15, i64 200, !33, i64 204, !15, i64 212}
!32 = !{!"p1 _ZTS17AVCodecParameters", !6, i64 0}
!33 = !{!"AVRational", !15, i64 0, !15, i64 4}
!34 = !{!"AVPacket", !35, i64 0, !21, i64 8, !21, i64 16, !20, i64 24, !15, i64 32, !15, i64 36, !15, i64 40, !36, i64 48, !15, i64 56, !21, i64 64, !21, i64 72, !6, i64 80, !35, i64 88, !33, i64 96}
!35 = !{!"p1 _ZTS11AVBufferRef", !6, i64 0}
!36 = !{!"p1 _ZTS16AVPacketSideData", !6, i64 0}
!37 = !{!31, !32, i64 16}
!38 = !{!39, !15, i64 72}
!39 = !{!"AVCodecParameters", !15, i64 0, !15, i64 4, !15, i64 8, !20, i64 16, !15, i64 24, !36, i64 32, !15, i64 40, !15, i64 44, !21, i64 48, !15, i64 56, !15, i64 60, !15, i64 64, !15, i64 68, !15, i64 72, !15, i64 76, !33, i64 80, !33, i64 88, !15, i64 96, !15, i64 100, !15, i64 104, !15, i64 108, !15, i64 112, !15, i64 116, !15, i64 120, !40, i64 128, !15, i64 152, !15, i64 156, !15, i64 160, !15, i64 164, !15, i64 168, !15, i64 172}
!40 = !{!"AVChannelLayout", !15, i64 0, !15, i64 4, !7, i64 8, !6, i64 16}
!41 = !{!39, !15, i64 76}
!42 = !{!31, !15, i64 36}
!43 = !{!31, !15, i64 32}
!44 = !{!39, !15, i64 44}
