; ModuleID = 'bench/ffmpeg/original/filmstripenc.ll'
source_filename = "bench/ffmpeg/original/filmstripenc.ll"
target datalayout = "e-m:e-p270:32:32-p271:32:32-p272:64:64-i64:64-i128:128-f80:128-n8:16:32:64-S128"
target triple = "x86_64-pc-linux-gnu"

%struct.FFOutputFormat = type { %struct.AVOutputFormat, i32, i32, ptr, ptr, ptr, ptr, ptr, ptr, ptr, ptr, ptr, ptr, ptr, ptr }
%struct.AVOutputFormat = type { ptr, ptr, ptr, ptr, i32, i32, i32, i32, ptr, ptr }

@.str = private unnamed_addr constant [10 x i8] c"filmstrip\00", align 1
@.str.1 = private unnamed_addr constant [16 x i8] c"Adobe Filmstrip\00", align 1
@.str.2 = private unnamed_addr constant [4 x i8] c"flm\00", align 1
@ff_filmstrip_muxer = local_unnamed_addr constant %struct.FFOutputFormat { %struct.AVOutputFormat { ptr @.str, ptr @.str.1, ptr null, ptr @.str.2, i32 0, i32 13, i32 0, i32 0, ptr null, ptr null }, i32 0, i32 12, ptr null, ptr @ff_raw_write_packet, ptr @write_trailer, ptr null, ptr null, ptr null, ptr null, ptr null, ptr null, ptr @init, ptr null, ptr null }, align 8
@.str.3 = private unnamed_addr constant [35 x i8] c"only AV_PIX_FMT_RGBA is supported\0A\00", align 1

declare i32 @ff_raw_write_packet(ptr noundef, ptr noundef) #0

; Function Attrs: nounwind uwtable
define internal noundef i32 @write_trailer(ptr noundef readonly captures(none) %0) #1 {
  %2 = getelementptr inbounds nuw i8, ptr %0, i64 32
  %3 = load ptr, ptr %2, align 8, !tbaa !4
  %4 = getelementptr inbounds nuw i8, ptr %0, i64 48
  %5 = load ptr, ptr %4, align 8, !tbaa !24
  %6 = load ptr, ptr %5, align 8, !tbaa !25
  tail call void @avio_wb32(ptr noundef %3, i32 noundef 1382116964) #3
  %7 = getelementptr inbounds nuw i8, ptr %6, i64 56
  %8 = load i64, ptr %7, align 8, !tbaa !27
  %9 = trunc i64 %8 to i32
  tail call void @avio_wb32(ptr noundef %3, i32 noundef %9) #3
  tail call void @avio_wb16(ptr noundef %3, i32 noundef 0) #3
  tail call void @avio_wb16(ptr noundef %3, i32 noundef 0) #3
  %10 = getelementptr inbounds nuw i8, ptr %6, i64 16
  %11 = load ptr, ptr %10, align 8, !tbaa !34
  %12 = getelementptr inbounds nuw i8, ptr %11, i64 72
  %13 = load i32, ptr %12, align 8, !tbaa !35
  tail call void @avio_wb16(ptr noundef %3, i32 noundef %13) #3
  %14 = load ptr, ptr %10, align 8, !tbaa !34
  %15 = getelementptr inbounds nuw i8, ptr %14, i64 76
  %16 = load i32, ptr %15, align 4, !tbaa !38
  tail call void @avio_wb16(ptr noundef %3, i32 noundef %16) #3
  tail call void @avio_wb16(ptr noundef %3, i32 noundef 0) #3
  %17 = getelementptr inbounds nuw i8, ptr %6, i64 32
  %18 = getelementptr inbounds nuw i8, ptr %6, i64 36
  %19 = load i32, ptr %18, align 4, !tbaa !39
  %20 = load i32, ptr %17, align 8, !tbaa !40
  %21 = sdiv i32 %19, %20
  tail call void @avio_wb16(ptr noundef %3, i32 noundef %21) #3
  tail call void @ffio_fill(ptr noundef %3, i32 noundef 0, i64 noundef 16) #3
  ret i32 0
}

; Function Attrs: cold nounwind optsize uwtable
define internal range(i32 -1094995529, 1) i32 @init(ptr noundef %0) #2 {
  %2 = getelementptr inbounds nuw i8, ptr %0, i64 48
  %3 = load ptr, ptr %2, align 8, !tbaa !24
  %4 = load ptr, ptr %3, align 8, !tbaa !25
  %5 = getelementptr inbounds nuw i8, ptr %4, i64 16
  %6 = load ptr, ptr %5, align 8, !tbaa !34
  %7 = getelementptr inbounds nuw i8, ptr %6, i64 44
  %8 = load i32, ptr %7, align 4, !tbaa !41
  %.not = icmp eq i32 %8, 26
  br i1 %.not, label %10, label %9

9:                                                ; preds = %1
  tail call void (ptr, i32, ptr, ...) @av_log(ptr noundef nonnull %0, i32 noundef 16, ptr noundef nonnull @.str.3) #3
  br label %10

10:                                               ; preds = %1, %9
  %.0 = phi i32 [ -1094995529, %9 ], [ 0, %1 ]
  ret i32 %.0
}

declare void @avio_wb32(ptr noundef, i32 noundef) local_unnamed_addr #0

declare void @avio_wb16(ptr noundef, i32 noundef) local_unnamed_addr #0

declare void @ffio_fill(ptr noundef, i32 noundef, i64 noundef) local_unnamed_addr #0

declare void @av_log(ptr noundef, i32 noundef, ptr noundef, ...) local_unnamed_addr #0


!llvm.module.flags = !{!0, !1, !2, !3}

!0 = !{i32 1, !"wchar_size", i32 4}
!1 = !{i32 8, !"PIC Level", i32 2}
!2 = !{i32 7, !"uwtable", i32 2}
!3 = !{i32 1, !"override-stack-alignment", i32 16}
!4 = !{!5, !12, i64 32}
!5 = !{!"AVFormatContext", !6, i64 0, !10, i64 8, !11, i64 16, !7, i64 24, !12, i64 32, !13, i64 40, !13, i64 44, !14, i64 48, !13, i64 56, !16, i64 64, !13, i64 72, !17, i64 80, !18, i64 88, !19, i64 96, !19, i64 104, !19, i64 112, !13, i64 120, !13, i64 124, !13, i64 128, !19, i64 136, !19, i64 144, !18, i64 152, !13, i64 160, !13, i64 164, !20, i64 168, !13, i64 176, !13, i64 180, !13, i64 184, !13, i64 188, !21, i64 192, !19, i64 200, !13, i64 208, !13, i64 212, !22, i64 216, !13, i64 232, !13, i64 236, !13, i64 240, !13, i64 244, !19, i64 248, !13, i64 256, !13, i64 260, !13, i64 264, !13, i64 268, !13, i64 272, !13, i64 276, !13, i64 280, !13, i64 284, !13, i64 288, !13, i64 292, !13, i64 296, !13, i64 300, !19, i64 304, !13, i64 312, !13, i64 316, !13, i64 320, !13, i64 324, !13, i64 328, !18, i64 336, !18, i64 344, !18, i64 352, !18, i64 360, !13, i64 368, !23, i64 376, !23, i64 384, !23, i64 392, !23, i64 400, !13, i64 408, !7, i64 416, !7, i64 424, !19, i64 432, !18, i64 440, !7, i64 448, !7, i64 456, !19, i64 464}
!6 = !{!"p1 _ZTS7AVClass", !7, i64 0}
!7 = !{!"any pointer", !8, i64 0}
!8 = !{!"omnipotent char", !9, i64 0}
!9 = !{!"Simple C/C++ TBAA"}
!10 = !{!"p1 _ZTS13AVInputFormat", !7, i64 0}
!11 = !{!"p1 _ZTS14AVOutputFormat", !7, i64 0}
!12 = !{!"p1 _ZTS11AVIOContext", !7, i64 0}
!13 = !{!"int", !8, i64 0}
!14 = !{!"p2 _ZTS8AVStream", !15, i64 0}
!15 = !{!"any p2 pointer", !7, i64 0}
!16 = !{!"p2 _ZTS13AVStreamGroup", !15, i64 0}
!17 = !{!"p2 _ZTS9AVChapter", !15, i64 0}
!18 = !{!"p1 omnipotent char", !7, i64 0}
!19 = !{!"long", !8, i64 0}
!20 = !{!"p2 _ZTS9AVProgram", !15, i64 0}
!21 = !{!"p1 _ZTS12AVDictionary", !7, i64 0}
!22 = !{!"AVIOInterruptCB", !7, i64 0, !7, i64 8}
!23 = !{!"p1 _ZTS7AVCodec", !7, i64 0}
!24 = !{!5, !14, i64 48}
!25 = !{!26, !26, i64 0}
!26 = !{!"p1 _ZTS8AVStream", !7, i64 0}
!27 = !{!28, !19, i64 56}
!28 = !{!"AVStream", !6, i64 0, !13, i64 8, !13, i64 12, !29, i64 16, !7, i64 24, !30, i64 32, !19, i64 40, !19, i64 48, !19, i64 56, !13, i64 64, !13, i64 68, !30, i64 72, !21, i64 80, !30, i64 88, !31, i64 96, !13, i64 200, !30, i64 204, !13, i64 212}
!29 = !{!"p1 _ZTS17AVCodecParameters", !7, i64 0}
!30 = !{!"AVRational", !13, i64 0, !13, i64 4}
!31 = !{!"AVPacket", !32, i64 0, !19, i64 8, !19, i64 16, !18, i64 24, !13, i64 32, !13, i64 36, !13, i64 40, !33, i64 48, !13, i64 56, !19, i64 64, !19, i64 72, !7, i64 80, !32, i64 88, !30, i64 96}
!32 = !{!"p1 _ZTS11AVBufferRef", !7, i64 0}
!33 = !{!"p1 _ZTS16AVPacketSideData", !7, i64 0}
!34 = !{!28, !29, i64 16}
!35 = !{!36, !13, i64 72}
!36 = !{!"AVCodecParameters", !13, i64 0, !13, i64 4, !13, i64 8, !18, i64 16, !13, i64 24, !33, i64 32, !13, i64 40, !13, i64 44, !19, i64 48, !13, i64 56, !13, i64 60, !13, i64 64, !13, i64 68, !13, i64 72, !13, i64 76, !30, i64 80, !30, i64 88, !13, i64 96, !13, i64 100, !13, i64 104, !13, i64 108, !13, i64 112, !13, i64 116, !13, i64 120, !37, i64 128, !13, i64 152, !13, i64 156, !13, i64 160, !13, i64 164, !13, i64 168, !13, i64 172}
!37 = !{!"AVChannelLayout", !13, i64 0, !13, i64 4, !8, i64 8, !7, i64 16}
!38 = !{!36, !13, i64 76}
!39 = !{!28, !13, i64 36}
!40 = !{!28, !13, i64 32}
!41 = !{!36, !13, i64 44}
